; ModuleID = 'source-C-CXX/44/860.c'
source_filename = "source-C-CXX/44/860.c"
target datalayout = "e-m:e-p270:32:32-p271:32:32-p272:64:64-i64:64-f80:128-n8:16:32:64-S128"
target triple = "x86_64-pc-linux-gnu"

@.str = private unnamed_addr constant [6 x i8] c"%s %s\00", align 1
@.str.1 = private unnamed_addr constant [3 x i8] c"%d\00", align 1

; Function Attrs: nofree nounwind sspstrong uwtable
define dso_local void @main() local_unnamed_addr #0 {
  %1 = alloca [50 x i8], align 16
  %2 = alloca [50 x i8], align 16
  %3 = getelementptr inbounds [50 x i8], [50 x i8]* %1, i64 0, i64 0
  call void @llvm.lifetime.start.p0i8(i64 50, i8* nonnull %3) #4
  %4 = getelementptr inbounds [50 x i8], [50 x i8]* %2, i64 0, i64 0
  call void @llvm.lifetime.start.p0i8(i64 50, i8* nonnull %4) #4
  %5 = call i32 (i8*, ...) @__isoc99_scanf(i8* getelementptr inbounds ([6 x i8], [6 x i8]* @.str, i64 0, i64 0), i8* nonnull %3, i8* nonnull %4)
  %6 = call i64 @strlen(i8* noundef nonnull %3) #5
  %7 = trunc i64 %6 to i32
  %8 = call i64 @strlen(i8* noundef nonnull %4) #5
  %9 = trunc i64 %8 to i32
  %10 = load i8, i8* %3, align 16
  %11 = icmp sgt i32 %9, 0
  br i1 %11, label %12, label %35

12:                                               ; preds = %0
  %13 = and i64 %8, 4294967295
  br label %14

14:                                               ; preds = %12, %32
  %15 = phi i64 [ 0, %12 ], [ %33, %32 ]
  %16 = getelementptr inbounds [50 x i8], [50 x i8]* %2, i64 0, i64 %15
  %17 = load i8, i8* %16, align 1, !tbaa !5
  %18 = icmp eq i8 %17, %10
  br i1 %18, label %19, label %32

19:                                               ; preds = %14
  %20 = trunc i64 %15 to i32
  %21 = icmp sgt i32 %7, 1
  br i1 %21, label %22, label %35

22:                                               ; preds = %19
  %23 = add nuw i64 %15, 1
  %24 = and i64 %23, 4294967295
  %25 = getelementptr inbounds [50 x i8], [50 x i8]* %2, i64 0, i64 %24
  %26 = load i8, i8* %25, align 1, !tbaa !5
  %27 = getelementptr inbounds [50 x i8], [50 x i8]* %1, i64 0, i64 1
  %28 = load i8, i8* %27, align 1, !tbaa !5
  %29 = icmp eq i8 %26, %28
  br i1 %29, label %30, label %35

30:                                               ; preds = %22
  %31 = call i32 (i8*, ...) @printf(i8* nonnull dereferenceable(1) getelementptr inbounds ([3 x i8], [3 x i8]* @.str.1, i64 0, i64 0), i32 %20)
  br label %35

32:                                               ; preds = %14
  %33 = add nuw nsw i64 %15, 1
  %34 = icmp eq i64 %33, %13
  br i1 %34, label %35, label %14, !llvm.loop !8

35:                                               ; preds = %32, %0, %19, %30, %22
  call void @llvm.lifetime.end.p0i8(i64 50, i8* nonnull %4) #4
  call void @llvm.lifetime.end.p0i8(i64 50, i8* nonnull %3) #4
  ret void
}

; Function Attrs: argmemonly mustprogress nofree nosync nounwind willreturn
declare void @llvm.lifetime.start.p0i8(i64 immarg, i8* nocapture) #1

; Function Attrs: nofree nounwind
declare noundef i32 @__isoc99_scanf(i8* nocapture noundef readonly, ...) local_unnamed_addr #2

; Function Attrs: argmemonly mustprogress nofree nounwind readonly willreturn
declare i64 @strlen(i8* nocapture) local_unnamed_addr #3

; Function Attrs: nofree nounwind
declare noundef i32 @printf(i8* nocapture noundef readonly, ...) local_unnamed_addr #2

; Function Attrs: argmemonly mustprogress nofree nosync nounwind willreturn
declare void @llvm.lifetime.end.p0i8(i64 immarg, i8* nocapture) #1


!llvm.module.flags = !{!0, !1, !2, !3}
!llvm.ident = !{!4}

!0 = !{i32 1, !"wchar_size", i32 4}
!1 = !{i32 7, !"PIC Level", i32 2}
!2 = !{i32 7, !"PIE Level", i32 2}
!3 = !{i32 7, !"uwtable", i32 1}
!4 = !{!"clang version 13.0.0"}
!5 = !{!6, !6, i64 0}
!6 = !{!"omnipotent char", !7, i64 0}
!7 = !{!"Simple C/C++ TBAA"}
!8 = distinct !{!8, !9}
!9 = !{!"llvm.loop.mustprogress"}
